target datalayout = "e-m:e-p270:32:32-p271:32:32-p272:64:64-i64:64-i128:128-f80:128-n8:16:32:64-S128"
target triple = "x86_64-pc-linux-gnu"

%struct.UDataInfo = type { i16, i16, i8, i8, i8, i8, [4 x i8], [4 x i8], [4 x i8] }

@.str = private unnamed_addr constant [5 x i16] [i16 69, i16 109, i16 111, i16 106, i16 0], align 2

; Function Attrs: mustprogress nounwind uwtable
define internal noundef signext i8 @_ZN6icu_7712_GLOBAL__N_128udata_isAcceptableMajorMinorERK9UDataInfoPKDshh(ptr noundef nonnull align 2 dereferenceable(20) %0, ptr noundef %1, i8 noundef zeroext %2, i8 noundef zeroext %3) #0 {
  %5 = alloca ptr, align 8
  %6 = alloca ptr, align 8
  %7 = alloca i8, align 1
  %8 = alloca i8, align 1
  store ptr %0, ptr %5, align 8, !tbaa !13
  store ptr %1, ptr %6, align 8, !tbaa !25
  store i8 %2, ptr %7, align 1, !tbaa !27
  store i8 %3, ptr %8, align 1, !tbaa !27
  %9 = load ptr, ptr %5, align 8, !tbaa !13
  %10 = getelementptr inbounds nuw %struct.UDataInfo, ptr %9, i32 0, i32 0
  %11 = load i16, ptr %10, align 2, !tbaa !28
  %12 = zext i16 %11 to i32
  %13 = icmp sge i32 %12, 20
  br i1 %13, label %14, label %88

14:                                               ; preds = %4
  %15 = load ptr, ptr %5, align 8, !tbaa !13
  %16 = getelementptr inbounds nuw %struct.UDataInfo, ptr %15, i32 0, i32 2
  %17 = load i8, ptr %16, align 2, !tbaa !31
  %18 = zext i8 %17 to i32
  %19 = icmp eq i32 %18, 0
  br i1 %19, label %20, label %88

20:                                               ; preds = %14
  %21 = load ptr, ptr %5, align 8, !tbaa !13
  %22 = getelementptr inbounds nuw %struct.UDataInfo, ptr %21, i32 0, i32 3
  %23 = load i8, ptr %22, align 1, !tbaa !32
  %24 = zext i8 %23 to i32
  %25 = icmp eq i32 %24, 0
  br i1 %25, label %26, label %88

26:                                               ; preds = %20
  %27 = load ptr, ptr %5, align 8, !tbaa !13
  %28 = getelementptr inbounds nuw %struct.UDataInfo, ptr %27, i32 0, i32 6
  %29 = getelementptr inbounds [4 x i8], ptr %28, i64 0, i64 0
  %30 = load i8, ptr %29, align 2, !tbaa !27
  %31 = zext i8 %30 to i32
  %32 = load ptr, ptr %6, align 8, !tbaa !25
  %33 = getelementptr inbounds i16, ptr %32, i64 0
  %34 = load i16, ptr %33, align 2, !tbaa !33
  %35 = zext i16 %34 to i32
  %36 = icmp eq i32 %31, %35
  br i1 %36, label %37, label %88

37:                                               ; preds = %26
  %38 = load ptr, ptr %5, align 8, !tbaa !13
  %39 = getelementptr inbounds nuw %struct.UDataInfo, ptr %38, i32 0, i32 6
  %40 = getelementptr inbounds [4 x i8], ptr %39, i64 0, i64 1
  %41 = load i8, ptr %40, align 1, !tbaa !27
  %42 = zext i8 %41 to i32
  %43 = load ptr, ptr %6, align 8, !tbaa !25
  %44 = getelementptr inbounds i16, ptr %43, i64 1
  %45 = load i16, ptr %44, align 2, !tbaa !33
  %46 = zext i16 %45 to i32
  %47 = icmp eq i32 %42, %46
  br i1 %47, label %48, label %88

48:                                               ; preds = %37
  %49 = load ptr, ptr %5, align 8, !tbaa !13
  %50 = getelementptr inbounds nuw %struct.UDataInfo, ptr %49, i32 0, i32 6
  %51 = getelementptr inbounds [4 x i8], ptr %50, i64 0, i64 2
  %52 = load i8, ptr %51, align 2, !tbaa !27
  %53 = zext i8 %52 to i32
  %54 = load ptr, ptr %6, align 8, !tbaa !25
  %55 = getelementptr inbounds i16, ptr %54, i64 2
  %56 = load i16, ptr %55, align 2, !tbaa !33
  %57 = zext i16 %56 to i32
  %58 = icmp eq i32 %53, %57
  br i1 %58, label %59, label %88

59:                                               ; preds = %48
  %60 = load ptr, ptr %5, align 8, !tbaa !13
  %61 = getelementptr inbounds nuw %struct.UDataInfo, ptr %60, i32 0, i32 6
  %62 = getelementptr inbounds [4 x i8], ptr %61, i64 0, i64 3
  %63 = load i8, ptr %62, align 1, !tbaa !27
  %64 = zext i8 %63 to i32
  %65 = load ptr, ptr %6, align 8, !tbaa !25
  %66 = getelementptr inbounds i16, ptr %65, i64 3
  %67 = load i16, ptr %66, align 2, !tbaa !33
  %68 = zext i16 %67 to i32
  %69 = icmp eq i32 %64, %68
  br i1 %69, label %70, label %88

70:                                               ; preds = %59
  %71 = load ptr, ptr %5, align 8, !tbaa !13
  %72 = getelementptr inbounds nuw %struct.UDataInfo, ptr %71, i32 0, i32 7
  %73 = getelementptr inbounds [4 x i8], ptr %72, i64 0, i64 0
  %74 = load i8, ptr %73, align 2, !tbaa !27
  %75 = zext i8 %74 to i32
  %76 = load i8, ptr %7, align 1, !tbaa !27
  %77 = zext i8 %76 to i32
  %78 = icmp eq i32 %75, %77
  br i1 %78, label %79, label %88

79:                                               ; preds = %70
  %80 = load ptr, ptr %5, align 8, !tbaa !13
  %81 = getelementptr inbounds nuw %struct.UDataInfo, ptr %80, i32 0, i32 7
  %82 = getelementptr inbounds [4 x i8], ptr %81, i64 0, i64 1
  %83 = load i8, ptr %82, align 1, !tbaa !27
  %84 = zext i8 %83 to i32
  %85 = load i8, ptr %8, align 1, !tbaa !27
  %86 = zext i8 %85 to i32
  %87 = icmp sge i32 %84, %86
  br label %88

88:                                               ; preds = %79, %70, %59, %48, %37, %26, %20, %14, %4
  %89 = phi i1 [ false, %70 ], [ false, %59 ], [ false, %48 ], [ false, %37 ], [ false, %26 ], [ false, %20 ], [ false, %14 ], [ false, %4 ], [ %87, %79 ]
  %90 = zext i1 %89 to i8
  ret i8 %90
}

; Function Attrs: mustprogress uwtable
define noundef signext i8 @_ZN6icu_7710EmojiProps12isAcceptableEPvPKcS3_PK9UDataInfo(ptr noundef %0, ptr noundef %1, ptr noundef %2, ptr noundef %3) #3 align 2 {
  %5 = alloca ptr, align 8
  %6 = alloca ptr, align 8
  %7 = alloca ptr, align 8
  %8 = alloca ptr, align 8
  store ptr %0, ptr %5, align 8, !tbaa !13
  store ptr %1, ptr %6, align 8, !tbaa !23
  store ptr %2, ptr %7, align 8, !tbaa !23
  store ptr %3, ptr %8, align 8, !tbaa !13
  %9 = load ptr, ptr %8, align 8, !tbaa !13
  %10 = call noundef signext i8 @_ZN6icu_7712_GLOBAL__N_128udata_isAcceptableMajorMinorERK9UDataInfoPKDshh(ptr noundef nonnull align 2 dereferenceable(20) %9, ptr noundef @.str, i8 noundef zeroext 1, i8 noundef zeroext 0)
  ret i8 %10
}