; Function Attrs: mustprogress nofree norecurse nosync nounwind willreturn memory(argmem: read) uwtable
define noundef signext range(i8 0, 2) i8 @_ZN6icu_7710EmojiProps12isAcceptableEPvPKcS3_PK9UDataInfo(ptr readnone captures(none) %0, ptr readnone captures(none) %1, ptr readnone captures(none) %2, ptr noundef readonly captures(none) %3) #5 align 2 {
  %5 = load i16, ptr %3, align 2, !tbaa !25
  %6 = icmp ugt i16 %5, 19
  %7 = getelementptr inbounds nuw i8, ptr %3, i64 4
  %8 = load i8, ptr %7, align 2
  %9 = icmp eq i8 %8, 0
  %or.cond.i = select i1 %6, i1 %9, i1 false
  %10 = getelementptr inbounds nuw i8, ptr %3, i64 5
  %11 = load i8, ptr %10, align 1
  %12 = icmp eq i8 %11, 0
  %or.cond18.i = select i1 %or.cond.i, i1 %12, i1 false
  %13 = getelementptr inbounds nuw i8, ptr %3, i64 8
  %14 = load i8, ptr %13, align 2
  %15 = icmp eq i8 %14, 69
  %or.cond21.i = select i1 %or.cond18.i, i1 %15, i1 false
  %16 = getelementptr inbounds nuw i8, ptr %3, i64 9
  %17 = load i8, ptr %16, align 1
  %18 = icmp eq i8 %17, 109
  %or.cond24.i = select i1 %or.cond21.i, i1 %18, i1 false
  %19 = getelementptr inbounds nuw i8, ptr %3, i64 10
  %20 = load i8, ptr %19, align 2
  %21 = icmp eq i8 %20, 111
  %or.cond27.i = select i1 %or.cond24.i, i1 %21, i1 false
  %22 = getelementptr inbounds nuw i8, ptr %3, i64 11
  %23 = load i8, ptr %22, align 1
  %24 = icmp eq i8 %23, 106
  %or.cond30.i = select i1 %or.cond27.i, i1 %24, i1 false
  %25 = getelementptr inbounds nuw i8, ptr %3, i64 12
  %26 = load i8, ptr %25, align 2
  %27 = icmp eq i8 %26, 1
  %or.cond33.i = select i1 %or.cond30.i, i1 %27, i1 false
  %28 = zext i1 %or.cond33.i to i8
  ret i8 %28
}